; Function Attrs: mustprogress nounwind uwtable
define void @_ZN2cv12ppf_match_3d13PPF3DDetectorD2Ev(ptr noundef nonnull align 8 dereferenceable(297) initializes((0, 8)) %0) unnamed_addr #3 align 2 personality ptr @__gxx_personality_v0 {
  store ptr getelementptr inbounds nuw inrange(-16, 16) (i8, ptr @_ZTVN2cv12ppf_match_3d13PPF3DDetectorE, i64 16), ptr %0, align 8, !tbaa !3
  %2 = getelementptr inbounds nuw i8, ptr %0, i64 264
  %3 = load ptr, ptr %2, align 8, !tbaa !42
  %.not.i = icmp eq ptr %3, null
  br i1 %.not.i, label %5, label %4

4:                                                ; preds = %1
  tail call void @free(ptr noundef nonnull %3) #27
  store ptr null, ptr %2, align 8, !tbaa !42
  br label %5

5:                                                ; preds = %4, %1
  %6 = getelementptr inbounds nuw i8, ptr %0, i64 256
  %7 = load ptr, ptr %6, align 8, !tbaa !43
  %.not2.i = icmp eq ptr %7, null
  br i1 %.not2.i, label %_ZN2cv12ppf_match_3d13PPF3DDetector19clearTrainingModelsEv.exit, label %8

8:                                                ; preds = %5
  invoke void @_ZN2cv12ppf_match_3d16hashtableDestroyEPNS0_8HSHTBL_iE(ptr noundef nonnull %7)
          to label %.noexc unwind label %11

.noexc:                                           ; preds = %8
  store ptr null, ptr %6, align 8, !tbaa !43
  br label %_ZN2cv12ppf_match_3d13PPF3DDetector19clearTrainingModelsEv.exit

_ZN2cv12ppf_match_3d13PPF3DDetector19clearTrainingModelsEv.exit: ; preds = %.noexc, %5
  %9 = getelementptr inbounds nuw i8, ptr %0, i64 152
  tail call void @_ZN2cv3MatD1Ev(ptr noundef nonnull align 8 dereferenceable(96) %9) #27
  %10 = getelementptr inbounds nuw i8, ptr %0, i64 56
  tail call void @_ZN2cv3MatD1Ev(ptr noundef nonnull align 8 dereferenceable(96) %10) #27
  ret void

11:                                               ; preds = %8
  %12 = landingpad { ptr, i32 }
          catch ptr null
  %13 = extractvalue { ptr, i32 } %12, 0
  tail call void @__clang_call_terminate(ptr %13) #28
  unreachable
}